target datalayout = "e-m:e-p270:32:32-p271:32:32-p272:64:64-i64:64-i128:128-f80:128-n8:16:32:64-S128"
target triple = "x86_64-unknown-linux-gnu"

%"class.std::__cxx11::basic_string" = type { %"struct.std::__cxx11::basic_string<char>::_Alloc_hider", i64, %union.anon }
%"struct.std::__cxx11::basic_string<char>::_Alloc_hider" = type { ptr }
%union.anon = type { i64, [8 x i8] }
%"class.rocksdb::MemTableRep::Iterator" = type { ptr }
%"class.rocksdb::SkipList" = type <{ i16, i16, i32, ptr, ptr, ptr, %"struct.std::atomic.33", [4 x i8], ptr, i32, [4 x i8] }>
%"struct.std::atomic.33" = type { %"struct.std::__atomic_base.34" }
%"struct.std::__atomic_base.34" = type { i32 }
%"class.rocksdb::SkipList<const char *, const rocksdb::MemTableRep::KeyComparator &>::Iterator" = type { ptr, ptr }
%"struct.rocksdb::SkipList<const char *, const rocksdb::MemTableRep::KeyComparator &>::Node" = type { ptr, [1 x %"struct.std::atomic.35"] }
%"struct.std::atomic.35" = type { %"struct.std::__atomic_base.36" }
%"struct.std::__atomic_base.36" = type { ptr }
%"class.rocksdb::(anonymous namespace)::HashLinkListRep::FullListIterator" = type { %"class.rocksdb::MemTableRep::Iterator", %"class.rocksdb::SkipList<const char *, const rocksdb::MemTableRep::KeyComparator &>::Iterator", %"class.std::unique_ptr.48", %"class.std::unique_ptr.56", %"class.std::__cxx11::basic_string" }
%"class.std::unique_ptr.48" = type { %"struct.std::__uniq_ptr_data.49" }
%"struct.std::__uniq_ptr_data.49" = type { %"class.std::__uniq_ptr_impl.50" }
%"class.std::__uniq_ptr_impl.50" = type { %"class.std::tuple.51" }
%"class.std::tuple.51" = type { %"struct.std::_Tuple_impl.52" }
%"struct.std::_Tuple_impl.52" = type { %"struct.std::_Head_base.55" }
%"struct.std::_Head_base.55" = type { ptr }
%"class.std::unique_ptr.56" = type { %"struct.std::__uniq_ptr_data.57" }
%"struct.std::__uniq_ptr_data.57" = type { %"class.std::__uniq_ptr_impl.58" }
%"class.std::__uniq_ptr_impl.58" = type { %"class.std::tuple.59" }
%"class.std::tuple.59" = type { %"struct.std::_Tuple_impl.60" }
%"struct.std::_Tuple_impl.60" = type { %"struct.std::_Head_base.63" }
%"struct.std::_Head_base.63" = type { ptr }

; Function Attrs: mustprogress nounwind uwtable
define linkonce_odr noundef ptr @_ZNKSt6atomicIPN7rocksdb8SkipListIPKcRKNS0_11MemTableRep13KeyComparatorEE4NodeEE4loadESt12memory_order(ptr noundef nonnull align 8 dereferenceable(8) %this, i32 noundef %__m) #1 comdat align 2 {
entry:
  %this.addr.i = alloca ptr, align 8
  %__m.addr.i = alloca i32, align 4
  %__b.i = alloca i32, align 4
  %atomic-temp.i = alloca ptr, align 8
  %this.addr = alloca ptr, align 8
  %__m.addr = alloca i32, align 4
  store ptr %this, ptr %this.addr, align 8
  store i32 %__m, ptr %__m.addr, align 4
  %this1 = load ptr, ptr %this.addr, align 8
  %_M_b = getelementptr inbounds %"struct.std::atomic.35", ptr %this1, i32 0, i32 0
  %0 = load i32, ptr %__m.addr, align 4
  store ptr %_M_b, ptr %this.addr.i, align 8
  store i32 %0, ptr %__m.addr.i, align 4
  %this1.i = load ptr, ptr %this.addr.i, align 8
  %1 = load i32, ptr %__m.addr.i, align 4
  %call.i = call noundef i32 @_ZStanSt12memory_orderSt23__memory_order_modifier(i32 noundef %1, i32 noundef 65535)
  store i32 %call.i, ptr %__b.i, align 4
  %2 = load i32, ptr %__m.addr.i, align 4
  switch i32 %2, label %monotonic.i [
    i32 1, label %acquire.i
    i32 2, label %acquire.i
    i32 5, label %seqcst.i
  ]

monotonic.i:                                      ; preds = %entry
  %3 = load atomic i64, ptr %this1.i monotonic, align 8
  store i64 %3, ptr %atomic-temp.i, align 8
  br label %_ZNKSt13__atomic_baseIPN7rocksdb8SkipListIPKcRKNS0_11MemTableRep13KeyComparatorEE4NodeEE4loadESt12memory_order.exit

acquire.i:                                        ; preds = %entry, %entry
  %4 = load atomic i64, ptr %this1.i acquire, align 8
  store i64 %4, ptr %atomic-temp.i, align 8
  br label %_ZNKSt13__atomic_baseIPN7rocksdb8SkipListIPKcRKNS0_11MemTableRep13KeyComparatorEE4NodeEE4loadESt12memory_order.exit

seqcst.i:                                         ; preds = %entry
  %5 = load atomic i64, ptr %this1.i seq_cst, align 8
  store i64 %5, ptr %atomic-temp.i, align 8
  br label %_ZNKSt13__atomic_baseIPN7rocksdb8SkipListIPKcRKNS0_11MemTableRep13KeyComparatorEE4NodeEE4loadESt12memory_order.exit

_ZNKSt13__atomic_baseIPN7rocksdb8SkipListIPKcRKNS0_11MemTableRep13KeyComparatorEE4NodeEE4loadESt12memory_order.exit: ; preds = %seqcst.i, %acquire.i, %monotonic.i
  %6 = load ptr, ptr %atomic-temp.i, align 8
  ret ptr %6
}

; Function Attrs: mustprogress nounwind uwtable
define linkonce_odr noundef i32 @_ZStanSt12memory_orderSt23__memory_order_modifier(i32 noundef %__m, i32 noundef %__mod) #1 comdat {
entry:
  %__m.addr = alloca i32, align 4
  %__mod.addr = alloca i32, align 4
  store i32 %__m, ptr %__m.addr, align 4
  store i32 %__mod, ptr %__mod.addr, align 4
  %0 = load i32, ptr %__m.addr, align 4
  %1 = load i32, ptr %__mod.addr, align 4
  %and = and i32 %0, %1
  ret i32 %and
}

; Function Attrs: mustprogress nounwind uwtable
define linkonce_odr noundef ptr @_ZN7rocksdb8SkipListIPKcRKNS_11MemTableRep13KeyComparatorEE4Node4NextEi(ptr noundef nonnull align 8 dereferenceable(16) %this, i32 noundef %n) #1 comdat align 2 {
entry:
  %this.addr = alloca ptr, align 8
  %n.addr = alloca i32, align 4
  store ptr %this, ptr %this.addr, align 8
  store i32 %n, ptr %n.addr, align 4
  %this1 = load ptr, ptr %this.addr, align 8
  %next_ = getelementptr inbounds %"struct.rocksdb::SkipList<const char *, const rocksdb::MemTableRep::KeyComparator &>::Node", ptr %this1, i32 0, i32 1
  %0 = load i32, ptr %n.addr, align 4
  %idxprom = sext i32 %0 to i64
  %arrayidx = getelementptr inbounds [1 x %"struct.std::atomic.35"], ptr %next_, i64 0, i64 %idxprom
  %call = call noundef ptr @_ZNKSt6atomicIPN7rocksdb8SkipListIPKcRKNS0_11MemTableRep13KeyComparatorEE4NodeEE4loadESt12memory_order(ptr noundef nonnull align 8 dereferenceable(8) %arrayidx, i32 noundef 2) #3
  ret ptr %call
}

; Function Attrs: mustprogress nounwind uwtable
define linkonce_odr noundef i32 @_ZNK7rocksdb8SkipListIPKcRKNS_11MemTableRep13KeyComparatorEE12GetMaxHeightEv(ptr noundef nonnull align 8 dereferenceable(52) %this) #1 comdat align 2 {
entry:
  %this.addr.i = alloca ptr, align 8
  %__m.addr.i = alloca i32, align 4
  %__b.i = alloca i32, align 4
  %atomic-temp.i = alloca i32, align 4
  %this.addr = alloca ptr, align 8
  store ptr %this, ptr %this.addr, align 8
  %this1 = load ptr, ptr %this.addr, align 8
  %max_height_ = getelementptr inbounds %"class.rocksdb::SkipList", ptr %this1, i32 0, i32 6
  store ptr %max_height_, ptr %this.addr.i, align 8
  store i32 0, ptr %__m.addr.i, align 4
  %this1.i = load ptr, ptr %this.addr.i, align 8
  %0 = load i32, ptr %__m.addr.i, align 4
  %call.i = call noundef i32 @_ZStanSt12memory_orderSt23__memory_order_modifier(i32 noundef %0, i32 noundef 65535)
  store i32 %call.i, ptr %__b.i, align 4
  %1 = load i32, ptr %__m.addr.i, align 4
  switch i32 %1, label %monotonic.i [
    i32 1, label %acquire.i
    i32 2, label %acquire.i
    i32 5, label %seqcst.i
  ]

monotonic.i:                                      ; preds = %entry
  %2 = load atomic i32, ptr %this1.i monotonic, align 4
  store i32 %2, ptr %atomic-temp.i, align 4
  br label %_ZNKSt13__atomic_baseIiE4loadESt12memory_order.exit

acquire.i:                                        ; preds = %entry, %entry
  %3 = load atomic i32, ptr %this1.i acquire, align 4
  store i32 %3, ptr %atomic-temp.i, align 4
  br label %_ZNKSt13__atomic_baseIiE4loadESt12memory_order.exit

seqcst.i:                                         ; preds = %entry
  %4 = load atomic i32, ptr %this1.i seq_cst, align 4
  store i32 %4, ptr %atomic-temp.i, align 4
  br label %_ZNKSt13__atomic_baseIiE4loadESt12memory_order.exit

_ZNKSt13__atomic_baseIiE4loadESt12memory_order.exit: ; preds = %seqcst.i, %acquire.i, %monotonic.i
  %5 = load i32, ptr %atomic-temp.i, align 4
  ret i32 %5
}

; Function Attrs: mustprogress nounwind uwtable
define linkonce_odr noundef ptr @_ZNK7rocksdb8SkipListIPKcRKNS_11MemTableRep13KeyComparatorEE8FindLastEv(ptr noundef nonnull align 8 dereferenceable(52) %this) #1 comdat align 2 {
entry:
  %this.addr = alloca ptr, align 8
  %x = alloca ptr, align 8
  %level = alloca i32, align 4
  %next = alloca ptr, align 8
  store ptr %this, ptr %this.addr, align 8
  %this1 = load ptr, ptr %this.addr, align 8
  %head_ = getelementptr inbounds %"class.rocksdb::SkipList", ptr %this1, i32 0, i32 5
  %0 = load ptr, ptr %head_, align 8
  store ptr %0, ptr %x, align 8
  %call = call noundef i32 @_ZNK7rocksdb8SkipListIPKcRKNS_11MemTableRep13KeyComparatorEE12GetMaxHeightEv(ptr noundef nonnull align 8 dereferenceable(52) %this1)
  %sub = sub nsw i32 %call, 1
  store i32 %sub, ptr %level, align 4
  br label %while.body

while.body:                                       ; preds = %if.end6, %entry
  %1 = load ptr, ptr %x, align 8
  %2 = load i32, ptr %level, align 4
  %call2 = call noundef ptr @_ZN7rocksdb8SkipListIPKcRKNS_11MemTableRep13KeyComparatorEE4Node4NextEi(ptr noundef nonnull align 8 dereferenceable(16) %1, i32 noundef %2)
  store ptr %call2, ptr %next, align 8
  %3 = load ptr, ptr %next, align 8
  %cmp = icmp eq ptr %3, null
  br i1 %cmp, label %if.then, label %if.else5

if.then:                                          ; preds = %while.body
  %4 = load i32, ptr %level, align 4
  %cmp3 = icmp eq i32 %4, 0
  br i1 %cmp3, label %if.then4, label %if.else

if.then4:                                         ; preds = %if.then
  %5 = load ptr, ptr %x, align 8
  ret ptr %5

if.else:                                          ; preds = %if.then
  %6 = load i32, ptr %level, align 4
  %dec = add nsw i32 %6, -1
  store i32 %dec, ptr %level, align 4
  br label %if.end

if.end:                                           ; preds = %if.else
  br label %if.end6

if.else5:                                         ; preds = %while.body
  %7 = load ptr, ptr %next, align 8
  store ptr %7, ptr %x, align 8
  br label %if.end6

if.end6:                                          ; preds = %if.else5, %if.end
  br label %while.body, !llvm.loop !24
}

; Function Attrs: mustprogress uwtable
define linkonce_odr void @_ZN7rocksdb8SkipListIPKcRKNS_11MemTableRep13KeyComparatorEE8Iterator10SeekToLastEv(ptr noundef nonnull align 8 dereferenceable(16) %this) #0 comdat align 2 {
entry:
  %this.addr = alloca ptr, align 8
  store ptr %this, ptr %this.addr, align 8
  %this1 = load ptr, ptr %this.addr, align 8
  %list_ = getelementptr inbounds %"class.rocksdb::SkipList<const char *, const rocksdb::MemTableRep::KeyComparator &>::Iterator", ptr %this1, i32 0, i32 0
  %0 = load ptr, ptr %list_, align 8
  %call = call noundef ptr @_ZNK7rocksdb8SkipListIPKcRKNS_11MemTableRep13KeyComparatorEE8FindLastEv(ptr noundef nonnull align 8 dereferenceable(52) %0)
  %node_ = getelementptr inbounds %"class.rocksdb::SkipList<const char *, const rocksdb::MemTableRep::KeyComparator &>::Iterator", ptr %this1, i32 0, i32 1
  store ptr %call, ptr %node_, align 8
  %node_2 = getelementptr inbounds %"class.rocksdb::SkipList<const char *, const rocksdb::MemTableRep::KeyComparator &>::Iterator", ptr %this1, i32 0, i32 1
  %1 = load ptr, ptr %node_2, align 8
  %list_3 = getelementptr inbounds %"class.rocksdb::SkipList<const char *, const rocksdb::MemTableRep::KeyComparator &>::Iterator", ptr %this1, i32 0, i32 0
  %2 = load ptr, ptr %list_3, align 8
  %head_ = getelementptr inbounds %"class.rocksdb::SkipList", ptr %2, i32 0, i32 5
  %3 = load ptr, ptr %head_, align 8
  %cmp = icmp eq ptr %1, %3
  br i1 %cmp, label %if.then, label %if.end

if.then:                                          ; preds = %entry
  %node_4 = getelementptr inbounds %"class.rocksdb::SkipList<const char *, const rocksdb::MemTableRep::KeyComparator &>::Iterator", ptr %this1, i32 0, i32 1
  store ptr null, ptr %node_4, align 8
  br label %if.end

if.end:                                           ; preds = %if.then, %entry
  ret void
}

; Function Attrs: mustprogress uwtable
define internal void @_ZN7rocksdb12_GLOBAL__N_115HashLinkListRep16FullListIterator10SeekToLastEv(ptr noundef nonnull align 8 dereferenceable(72) %this) unnamed_addr #0 align 2 {
entry:
  %this.addr = alloca ptr, align 8
  store ptr %this, ptr %this.addr, align 8
  %this1 = load ptr, ptr %this.addr, align 8
  %iter_ = getelementptr inbounds %"class.rocksdb::(anonymous namespace)::HashLinkListRep::FullListIterator", ptr %this1, i32 0, i32 1
  call void @_ZN7rocksdb8SkipListIPKcRKNS_11MemTableRep13KeyComparatorEE8Iterator10SeekToLastEv(ptr noundef nonnull align 8 dereferenceable(16) %iter_)
  ret void
}